; Function Attrs: mustprogress uwtable
define noundef ptr @_ZNK19OpenColorIO_v2_5dev6Config10getCacheIDEv(ptr noundef nonnull align 8 dereferenceable(8) %0) local_unnamed_addr #4 align 2 personality ptr @__gxx_personality_v0 {
  %2 = alloca %"class.std::shared_ptr.103", align 8
  call void @llvm.lifetime.start.p0(i64 16, ptr nonnull %2) #34
  tail call void @llvm.experimental.noalias.scope.decl(metadata !788)
  %3 = load ptr, ptr %0, align 8, !tbaa !34, !noalias !788
  %4 = getelementptr inbounds nuw i8, ptr %3, i64 56
  %5 = load ptr, ptr %4, align 8, !tbaa !235, !noalias !788
  store ptr %5, ptr %2, align 8, !tbaa !379, !alias.scope !788
  %6 = getelementptr inbounds nuw i8, ptr %2, i64 8
  %7 = getelementptr inbounds nuw i8, ptr %3, i64 64
  %8 = load ptr, ptr %7, align 8, !tbaa !11, !noalias !788
  store ptr %8, ptr %6, align 8, !tbaa !11, !alias.scope !788
  %.not.i.i.i.i = icmp eq ptr %8, null
  br i1 %.not.i.i.i.i, label %_ZNK19OpenColorIO_v2_5dev6Config17getCurrentContextEv.exit, label %9

9:                                                ; preds = %1
  %10 = getelementptr inbounds nuw i8, ptr %8, i64 8
  %11 = load i8, ptr @__libc_single_threaded, align 1, !tbaa !19, !noalias !788
  %.not.i.i.i.i.i = icmp eq i8 %11, 0
  br i1 %.not.i.i.i.i.i, label %15, label %12

12:                                               ; preds = %9
  %13 = load i32, ptr %10, align 4, !tbaa !20, !noalias !788
  %14 = add nsw i32 %13, 1
  store i32 %14, ptr %10, align 4, !tbaa !20, !noalias !788
  br label %_ZNK19OpenColorIO_v2_5dev6Config17getCurrentContextEv.exit

15:                                               ; preds = %9
  %16 = atomicrmw volatile add ptr %10, i32 1 acq_rel, align 4, !noalias !788
  br label %_ZNK19OpenColorIO_v2_5dev6Config17getCurrentContextEv.exit

_ZNK19OpenColorIO_v2_5dev6Config17getCurrentContextEv.exit: ; preds = %1, %12, %15
  %17 = invoke noundef ptr @_ZNK19OpenColorIO_v2_5dev6Config10getCacheIDERKSt10shared_ptrIKNS_7ContextEE(ptr noundef nonnull align 8 dereferenceable(8) %0, ptr noundef nonnull align 8 dereferenceable(16) %2)
          to label %18 unwind label %41

18:                                               ; preds = %_ZNK19OpenColorIO_v2_5dev6Config17getCurrentContextEv.exit
  %19 = load ptr, ptr %6, align 8, !tbaa !11
  %.not.i.i = icmp eq ptr %19, null
  br i1 %.not.i.i, label %_ZNSt12__shared_ptrIKN19OpenColorIO_v2_5dev7ContextELN9__gnu_cxx12_Lock_policyE2EED2Ev.exit, label %20

20:                                               ; preds = %18
  %21 = getelementptr inbounds nuw i8, ptr %19, i64 8
  %22 = load atomic i64, ptr %21 acquire, align 8
  %23 = icmp eq i64 %22, 4294967297
  %24 = trunc i64 %22 to i32
  br i1 %23, label %25, label %33

25:                                               ; preds = %20
  store i32 0, ptr %21, align 8, !tbaa !13
  %26 = getelementptr inbounds nuw i8, ptr %19, i64 12
  store i32 0, ptr %26, align 4, !tbaa !16
  %27 = load ptr, ptr %19, align 8, !tbaa !17
  %28 = getelementptr inbounds nuw i8, ptr %27, i64 16
  %29 = load ptr, ptr %28, align 8
  tail call void %29(ptr noundef nonnull align 8 dereferenceable(16) %19) #34
  %30 = load ptr, ptr %19, align 8, !tbaa !17
  %31 = getelementptr inbounds nuw i8, ptr %30, i64 24
  %32 = load ptr, ptr %31, align 8
  tail call void %32(ptr noundef nonnull align 8 dereferenceable(16) %19) #34
  br label %_ZNSt12__shared_ptrIKN19OpenColorIO_v2_5dev7ContextELN9__gnu_cxx12_Lock_policyE2EED2Ev.exit

33:                                               ; preds = %20
  %34 = load i8, ptr @__libc_single_threaded, align 1, !tbaa !19
  %.not.i.i.i = icmp eq i8 %34, 0
  br i1 %.not.i.i.i, label %37, label %35

35:                                               ; preds = %33
  %36 = add nsw i32 %24, -1
  store i32 %36, ptr %21, align 4, !tbaa !20
  br label %_ZN9__gnu_cxx27__exchange_and_add_dispatchEPii.exit.i.i.i

37:                                               ; preds = %33
  %38 = atomicrmw volatile add ptr %21, i32 -1 acq_rel, align 4
  br label %_ZN9__gnu_cxx27__exchange_and_add_dispatchEPii.exit.i.i.i

_ZN9__gnu_cxx27__exchange_and_add_dispatchEPii.exit.i.i.i: ; preds = %37, %35
  %.0.i.i.i.i = phi i32 [ %24, %35 ], [ %38, %37 ]
  %39 = icmp eq i32 %.0.i.i.i.i, 1
  br i1 %39, label %40, label %_ZNSt12__shared_ptrIKN19OpenColorIO_v2_5dev7ContextELN9__gnu_cxx12_Lock_policyE2EED2Ev.exit, !prof !21

40:                                               ; preds = %_ZN9__gnu_cxx27__exchange_and_add_dispatchEPii.exit.i.i.i
  tail call void @_ZNSt16_Sp_counted_baseILN9__gnu_cxx12_Lock_policyE2EE24_M_release_last_use_coldEv(ptr noundef nonnull align 8 dereferenceable(16) %19) #34
  br label %_ZNSt12__shared_ptrIKN19OpenColorIO_v2_5dev7ContextELN9__gnu_cxx12_Lock_policyE2EED2Ev.exit

_ZNSt12__shared_ptrIKN19OpenColorIO_v2_5dev7ContextELN9__gnu_cxx12_Lock_policyE2EED2Ev.exit: ; preds = %18, %25, %_ZN9__gnu_cxx27__exchange_and_add_dispatchEPii.exit.i.i.i, %40
  call void @llvm.lifetime.end.p0(i64 16, ptr nonnull %2) #34
  ret ptr %17

41:                                               ; preds = %_ZNK19OpenColorIO_v2_5dev6Config17getCurrentContextEv.exit
  %42 = landingpad { ptr, i32 }
          cleanup
  call void @_ZNSt12__shared_ptrIKN19OpenColorIO_v2_5dev7ContextELN9__gnu_cxx12_Lock_policyE2EED2Ev(ptr noundef nonnull align 8 dereferenceable(16) %2) #34
  call void @llvm.lifetime.end.p0(i64 16, ptr nonnull %2) #34
  resume { ptr, i32 } %42
}